Certificate:
    Data:
        Version: 3 (0x2)
        Serial Number: 1 (0x1)
        Signature Algorithm: sha256WithRSAEncryption
        Issuer: C=JP, ST=Tokyo, L=Nihombash, O=TakaraSign
        Validity
            Not Before: Feb 10 14:57:24 2020 GMT
            Not After : Feb  9 14:57:24 2021 GMT
        Subject: C=JP, ST=Tokyo, O=TakaraSign, CN=www.mahot.org
        Subject Public Key Info:
            Public Key Algorithm: rsaEncryption
                RSA Public-Key: (2048 bit)
                Modulus:
                    00:bc:c8:e0:7b:3c:be:75:84:68:0f:d6:db:1c:aa:
                    18:f6:dd:75:f6:a6:5e:76:29:0f:35:7d:26:f9:31:
                    61:26:ad:a2:99:24:a4:80:72:7a:80:0b:43:62:04:
                    d1:06:05:f4:4e:f3:c7:f1:da:fb:01:ff:f0:4b:41:
                    69:74:b4:16:39:02:25:fb:c4:3b:d6:ee:36:02:41:
                    c1:6b:7f:9a:15:6f:ce:d3:6c:bd:b0:c0:21:a7:d2:
                    4e:97:9d:95:3b:01:1e:fe:7e:fd:0b:90:79:8c:f8:
                    f6:3e:73:fc:f7:fd:ce:7f:c9:4b:5a:66:34:39:9e:
                    a5:29:72:3c:0d:4b:35:1e:8f:e7:d5:2b:5f:ed:95:
                    57:d9:0d:ed:7c:a9:96:27:e9:4b:47:2a:e7:9e:d0:
                    28:ad:a9:80:a9:e4:eb:0a:f1:15:7a:67:0f:56:c4:
                    3c:c0:68:1b:3b:c0:ec:71:b9:32:a5:39:6f:40:8a:
                    76:d2:93:b7:ae:00:60:b8:1a:b3:29:07:6e:a2:35:
                    06:f5:39:0d:b4:0c:06:54:5c:21:31:e4:6f:b8:b3:
                    91:a2:dd:a6:9c:d9:e5:e7:37:f0:53:cb:9f:b0:8b:
                    fc:6c:aa:44:bc:63:65:23:11:41:c0:48:89:17:10:
                    80:8f:9b:48:10:dd:e3:0d:79:7f:28:36:24:5e:53:
                    b6:27
                Exponent: 65537 (0x10001)
        X509v3 extensions:
            X509v3 Basic Constraints: 
                CA:FALSE
            Netscape Comment: 
                OpenSSL Generated Certificate
            X509v3 Subject Key Identifier: 
                55:6C:5D:EE:B6:A2:2A:40:90:DA:54:E5:0B:03:CB:0F:4D:3B:E5:31
            X509v3 Authority Key Identifier: 
                keyid:2F:59:0B:A7:79:32:5A:11:8F:6D:C6:51:EB:60:8F:07:C0:14:E3:C6

    Signature Algorithm: sha256WithRSAEncryption
         29:94:54:6f:f4:2e:20:bd:cb:30:cd:50:92:26:fc:f6:c5:6b:
         f9:b0:13:ed:c2:17:e0:fa:40:65:63:0b:51:b4:ca:94:bc:e7:
         0b:69:8c:0e:4a:72:a7:18:04:2c:c8:63:43:4a:9e:97:3d:9b:
         b5:52:16:3b:63:6e:3d:75:32:3d:a2:b5:9e:fe:7a:31:75:e1:
         96:4d:57:d0:40:b0:cf:a2:50:ab:47:f5:be:b5:18:86:38:22:
         ff:52:7b:3b:d1:66:30:10:d2:cd:ad:12:cd:36:ec:4a:98:eb:
         a3:e3:9c:f8:f6:c0:ba:0b:47:8f:1f:ce:7a:44:c0:66:9f:31:
         ca:da:ab:6e:73:3a:f4:2e:aa:21:1c:8f:be:61:cc:88:c5:d7:
         81:64:d7:e6:71:79:4a:cc:60:4a:4f:51:3c:35:33:e1:94:98:
         48:81:1e:0f:88:51:b1:36:69:b9:6c:20:34:3e:02:82:8e:37:
         2a:84:62:3a:62:ee:1c:07:b8:5c:23:9f:6d:ff:90:2b:1b:22:
         70:e4:a5:fc:97:ac:3f:f5:0f:40:82:f4:da:0f:de:42:39:8f:
         54:20:cf:c5:c6:c9:1c:36:40:11:c7:c2:a8:ce:b5:cd:85:6d:
         b6:00:48:91:80:d4:0f:d8:3e:f7:fa:89:ef:70:92:89:b5:e9:
         9f:e8:ac:1f
-----BEGIN CERTIFICATE-----
MIIDhjCCAm6gAwIBAgIBATANBgkqhkiG9w0BAQsFADBGMQswCQYDVQQGEwJKUDEO
MAwGA1UECAwFVG9reW8xEjAQBgNVBAcMCU5paG9tYmFzaDETMBEGA1UECgwKVGFr
YXJhU2lnbjAeFw0yMDAyMTAxNDU3MjRaFw0yMTAyMDkxNDU3MjRaMEoxCzAJBgNV
BAYTAkpQMQ4wDAYDVQQIDAVUb2t5bzETMBEGA1UECgwKVGFrYXJhU2lnbjEWMBQG
A1UEAwwNd3d3Lm1haG90Lm9yZzCCASIwDQYJKoZIhvcNAQEBBQADggEPADCCAQoC
ggEBALzI4Hs8vnWEaA/W2xyqGPbddfamXnYpDzV9JvkxYSatopkkpIByeoALQ2IE
0QYF9E7zx/Ha+wH/8EtBaXS0FjkCJfvEO9buNgJBwWt/mhVvztNsvbDAIafSTped
lTsBHv5+/QuQeYz49j5z/Pf9zn/JS1pmNDmepSlyPA1LNR6P59UrX+2VV9kN7Xyp
lifpS0cq557QKK2pgKnk6wrxFXpnD1bEPMBoGzvA7HG5MqU5b0CKdtKTt64AYLga
sykHbqI1BvU5DbQMBlRcITHkb7izkaLdppzZ5ec38FPLn7CL/GyqRLxjZSMRQcBI
iRcQgI+bSBDd4w15fyg2JF5TticCAwEAAaN7MHkwCQYDVR0TBAIwADAsBglghkgB
hvhCAQ0EHxYdT3BlblNTTCBHZW5lcmF0ZWQgQ2VydGlmaWNhdGUwHQYDVR0OBBYE
FFVsXe62oipAkNpU5QsDyw9NO+UxMB8GA1UdIwQYMBaAFC9ZC6d5MloRj23GUetg
jwfAFOPGMA0GCSqGSIb3DQEBCwUAA4IBAQAplFRv9C4gvcswzVCSJvz2xWv5sBPt
whfg+kBlYwtRtMqUvOcLaYwOSnKnGAQsyGNDSp6XPZu1UhY7Y249dTI9orWe/nox
deGWTVfQQLDPolCrR/W+tRiGOCL/Uns70WYwENLNrRLNNuxKmOuj45z49sC6C0eP
H856RMBmnzHK2qtuczr0LqohHI++YcyIxdeBZNfmcXlKzGBKT1E8NTPhlJhIgR4P
iFGxNmm5bCA0PgKCjjcqhGI6Yu4cB7hcI59t/5ArGyJw5KX8l6w/9Q9AgvTaD95C
OY9UIM/FxskcNkARx8KozrXNhW22AEiRgNQP2D73+onvcJKJtemf6Kwf
-----END CERTIFICATE-----
